c__builtin__
set
p0
((lp1
cnumpy.core.multiarray
scalar
p2
(cnumpy
dtype
p3
(S'S162'
p4
I0
I1
tp5
Rp6
(I3
S'|'
p7
NNNI162
I1
I0
tp8
bS'John ate the cat by Mary my park with an dog saw Mary with an park my elephant shot an elephant in my pajamas outside I my dog in an dog in my cat shot an pajamas'
p9
tp10
Rp11
ag2
(g3
(S'S132'
p12
I0
I1
tp13
Rp14
(I3
S'|'
p15
NNNI132
I1
I0
tp16
bS'Bob saw an park in Mary Bob saw the dog on Mary my pajamas outside an cat killed my dog outside an cat my pajamas killed an dog in I'
p17
tp18
Rp19
ag2
(g3
(S'S250'
p20
I0
I1
tp21
Rp22
(I3
S'|'
p23
NNNI250
I1
I0
tp24
bS'a telescope walked the park by John my dog saw the dog with the telescope by an park on an dog an dog shot my pajamas outside my elephant in my cat in an cat an cat outside my elephant outside my pajamas shot an dog outside I outside my cat in my cat'
p25
tp26
Rp27
ag2
(g3
(S'S140'
p28
I0
I1
tp29
Rp30
(I3
S'|'
p31
NNNI140
I1
I0
tp32
bS'my park in an telescope ate Bob Mary saw the dog on Bob an dog killed an dog in an dog outside an cat outside my dog my dog shot an elephant'
p33
tp34
Rp35
ag2
(g3
(S'S176'
p36
I0
I1
tp37
Rp38
(I3
S'|'
p39
NNNI176
I1
I0
tp40
bS'John saw Mary on Mary John walked Mary on a telescope an cat wounded I in an dog outside I in I outside an dog in my dog my pajamas wounded I outside my cat in an elephant in I'
p41
tp42
Rp43
ag2
(g3
(S'S160'
p44
I0
I1
tp45
Rp46
(I3
S'|'
p47
NNNI160
I1
I0
tp48
bS'an telescope by Bob walked Bob Mary saw the dog on Bob an dog killed an dog in an dog outside an cat outside my dog an elephant killed my dog outside an pajamas'
p49
tp50
Rp51
ag2
(g3
(S'S99'
p52
I0
I1
tp53
Rp54
(I3
S'|'
p55
NNNI99
I1
I0
tp56
bS'Mary saw Bob a cat in Mary saw John an cat shot I in an elephant I killed I in an pajamas outside I'
p57
tp58
Rp59
ag2
(g3
(S'S169'
p60
I0
I1
tp61
Rp62
(I3
S'|'
p63
NNNI169
I1
I0
tp64
bS'my cat in John saw my park on John Bob saw an cat by a cat on my park I shot my pajamas outside an elephant in I an dog outside I wounded my dog in my dog outside an dog'
p65
tp66
Rp67
ag2
(g3
(S'S213'
p68
I0
I1
tp69
Rp70
(I3
S'|'
p71
NNNI213
I1
I0
tp72
bS'John walked an park with my park by an dog by John in Bob my park with an dog saw Mary with an park my elephant shot an elephant in my pajamas outside I an pajamas in an pajamas outside an cat shot my pajamas in I'
p73
tp74
Rp75
ag2
(g3
(S'S129'
p76
I0
I1
tp77
Rp78
(I3
S'|'
p79
NNNI129
I1
I0
tp80
bS'my dog saw Bob John walked Mary on a telescope an cat wounded I in an dog outside I in I outside an dog in my dog I killed my dog'
p81
tp82
Rp83
ag2
(g3
(S'S102'
p84
I0
I1
tp85
Rp86
(I3
S'|'
p87
NNNI102
I1
I0
tp88
bS'Mary ate John by Bob a cat saw Bob an elephant wounded I an pajamas shot an pajamas outside an pajamas'
p89
tp90
Rp91
ag2
(g3
(S'S117'
p92
I0
I1
tp93
Rp94
(I3
S'|'
p95
NNNI117
I1
I0
tp96
bS'a cat ate John in Bob a dog walked John on John my pajamas killed I outside my pajamas my pajamas wounded my elephant'
p97
tp98
Rp99
ag2
(g3
(S'S134'
p100
I0
I1
tp101
Rp102
(I3
S'|'
p103
NNNI134
I1
I0
tp104
bS'my telescope saw John in Bob the man walked John I wounded my pajamas outside I in an pajamas I killed I outside I outside my elephant'
p105
tp106
Rp107
ag2
(g3
(S'S245'
p108
I0
I1
tp109
Rp110
(I3
S'|'
p111
NNNI245
I1
I0
tp112
bS'Bob saw John my man in the telescope on the cat by the park saw Bob with Mary my dog killed my dog in my elephant in I in an elephant outside an pajamas outside my dog in I in an dog in an elephant outside I outside I I shot an pajamas outside I'
p113
tp114
Rp115
ag2
(g3
(S'S124'
p116
I0
I1
tp117
Rp118
(I3
S'|'
p119
NNNI124
I1
I0
tp120
bS'John saw Mary on John Mary saw Bob I killed my pajamas in an pajamas an pajamas wounded I in I outside my cat in my elephant'
p121
tp122
Rp123
ag2
(g3
(S'S295'
p124
I0
I1
tp125
Rp126
(I3
S'|'
p127
NNNI295
I1
I0
tp128
bS'my park in an telescope on John ate Bob in the cat an telescope by Bob ate a telescope with Mary with a telescope I shot an pajamas in my dog in my cat outside I outside an pajamas in my cat in I outside an dog outside I my cat in an dog in my elephant in my dog wounded an pajamas in an pajamas'
p129
tp130
Rp131
ag2
(g3
(S'S114'
p132
I0
I1
tp133
Rp134
(I3
S'|'
p135
NNNI114
I1
I0
tp136
bS'Bob ate Mary John ate Bob in Bob my pajamas in an dog wounded my elephant in I an elephant wounded I in an pajamas'
p137
tp138
Rp139
ag2
(g3
(S'S225'
p140
I0
I1
tp141
Rp142
(I3
S'|'
p143
NNNI225
I1
I0
tp144
bS'John saw the cat by Mary in Mary John walked John with my telescope with John my cat in I killed an cat in my cat outside my cat outside an cat outside an elephant I wounded I outside an elephant in my elephant in an elephant'
p145
tp146
Rp147
ag2
(g3
(S'S197'
p148
I0
I1
tp149
Rp150
(I3
S'|'
p151
NNNI197
I1
I0
tp152
bS'Mary ate Mary an dog in the cat with John walked my man in my park on John I wounded my cat in an elephant outside my dog in my cat in my cat my elephant in an cat killed I outside I outside an cat'
p153
tp154
Rp155
ag2
(g3
(S'S155'
p156
I0
I1
tp157
Rp158
(I3
S'|'
p159
NNNI155
I1
I0
tp160
bS'my dog saw the dog in John an dog with my park on a man walked Bob an pajamas shot an dog in my cat outside an pajamas in my dog my elephant wounded my dog'
p161
tp162
Rp163
ag2
(g3
(S'S203'
p164
I0
I1
tp165
Rp166
(I3
S'|'
p167
NNNI203
I1
I0
tp168
bS'Bob saw John with an telescope an man with John saw a park with my cat on Bob an dog in I killed my cat in an dog outside my cat outside an cat outside I my elephant killed my pajamas in my dog outside I'
p169
tp170
Rp171
ag2
(g3
(S'S242'
p172
I0
I1
tp173
Rp174
(I3
S'|'
p175
NNNI242
I1
I0
tp176
bS'my man saw Bob by an park an telescope by Bob ate a telescope with Mary with a telescope I shot an pajamas in my dog in my cat outside I outside an pajamas in my cat in I outside an dog outside I I wounded my elephant outside my cat outside I'
p177
tp178
Rp179
ag2
(g3
(S'S103'
p180
I0
I1
tp181
Rp182
(I3
S'|'
p183
NNNI103
I1
I0
tp184
bS'an telescope saw Mary Mary ate John my pajamas wounded I in an elephant I wounded I in my cat outside I'
p185
tp186
Rp187
ag2
(g3
(S'S144'
p188
I0
I1
tp189
Rp190
(I3
S'|'
p191
NNNI144
I1
I0
tp192
bS'John saw an cat on the dog Bob walked Mary on John my elephant outside I killed my elephant in I outside I my cat in I shot an pajamas outside I'
p193
tp194
Rp195
ag2
(g3
(S'S196'
p196
I0
I1
tp197
Rp198
(I3
S'|'
p199
NNNI196
I1
I0
tp200
bS'John saw Mary my dog saw my park with the park by a park with Mary my cat wounded my dog in an pajamas in my pajamas in my dog outside I outside an pajamas in I I wounded my pajamas outside my dog'
p201
tp202
Rp203
ag2
(g3
(S'S93'
p204
I0
I1
tp205
Rp206
(I3
S'|'
p207
NNNI93
I1
I0
tp208
bS'Bob ate John Bob ate John my cat wounded my elephant outside I my pajamas in my dog wounded I'
p209
tp210
Rp211
ag2
(g3
(S'S151'
p212
I0
I1
tp213
Rp214
(I3
S'|'
p215
NNNI151
I1
I0
tp216
bS'the dog saw John in John a dog saw Bob in a man with Bob an cat wounded an dog in my cat outside an dog outside my dog I shot I in my pajamas in an cat'
p217
tp218
Rp219
ag2
(g3
(S'S134'
p220
I0
I1
tp221
Rp222
(I3
S'|'
p223
NNNI134
I1
I0
tp224
bS'Bob walked Bob a dog saw Bob in a man with Bob an cat wounded an dog in my cat outside an dog outside my dog my dog killed my elephant'
p225
tp226
Rp227
ag2
(g3
(S'S116'
p228
I0
I1
tp229
Rp230
(I3
S'|'
p231
NNNI116
I1
I0
tp232
bS'John walked my telescope the dog saw a man in John my pajamas outside I shot my pajamas my cat shot my cat outside I'
p233
tp234
Rp235
ag2
(g3
(S'S117'
p236
I0
I1
tp237
Rp238
(I3
S'|'
p239
NNNI117
I1
I0
tp240
bS'Mary ate Mary in a park John ate a dog in Bob an pajamas outside my cat killed I my elephant in an elephant wounded I'
p241
tp242
Rp243
ag2
(g3
(S'S105'
p244
I0
I1
tp245
Rp246
(I3
S'|'
p247
NNNI105
I1
I0
tp248
bS'Mary ate John in Bob John walked an dog an cat shot my dog I wounded an elephant in I outside an cat in I'
p249
tp250
Rp251
ag2
(g3
(S'S96'
p252
I0
I1
tp253
Rp254
(I3
S'|'
p255
NNNI96
I1
I0
tp256
bS'an man walked my park by an cat a cat saw Bob an elephant wounded I an cat shot an cat outside I'
p257
tp258
Rp259
ag2
(g3
(S'S169'
p260
I0
I1
tp261
Rp262
(I3
S'|'
p263
NNNI169
I1
I0
tp264
bS'John walked Mary by Bob Mary saw the dog on an dog on an dog in Bob an pajamas outside my cat wounded an cat in an cat my cat wounded an cat in my pajamas outside an dog'
p265
tp266
Rp267
ag2
(g3
(S'S118'
p268
I0
I1
tp269
Rp270
(I3
S'|'
p271
NNNI118
I1
I0
tp272
bS'an man ate John Bob ate John in Mary my elephant wounded I outside an elephant I killed my pajamas in my elephant in I'
p273
tp274
Rp275
ag2
(g3
(S'S126'
p276
I0
I1
tp277
Rp278
(I3
S'|'
p279
NNNI126
I1
I0
tp280
bS'John ate Bob Bob walked Mary on John my elephant outside I killed my elephant in I outside I my dog outside I shot I outside I'
p281
tp282
Rp283
ag2
(g3
(S'S126'
p284
I0
I1
tp285
Rp286
(I3
S'|'
p287
NNNI126
I1
I0
tp288
bS'Bob ate Bob in Mary my telescope saw Mary in John my pajamas shot my elephant outside I my pajamas killed my pajamas in an dog'
p289
tp290
Rp291
ag2
(g3
(S'S115'
p292
I0
I1
tp293
Rp294
(I3
S'|'
p295
NNNI115
I1
I0
tp296
bS'John ate an cat on an cat in Bob Mary ate John my pajamas wounded I in an elephant I shot an elephant in an pajamas'
p297
tp298
Rp299
ag2
(g3
(S'S167'
p300
I0
I1
tp301
Rp302
(I3
S'|'
p303
NNNI167
I1
I0
tp304
bS'an park saw a cat in Bob on Bob a dog saw Bob in a man with Bob an cat wounded an dog in my cat outside an dog outside my dog I shot my pajamas outside I in an pajamas'
p305
tp306
Rp307
ag2
(g3
(S'S126'
p308
I0
I1
tp309
Rp310
(I3
S'|'
p311
NNNI126
I1
I0
tp312
bS'an man saw Bob on Bob John ate John I killed my cat outside an elephant in I an elephant in my elephant killed I in my pajamas'
p313
tp314
Rp315
ag2
(g3
(S'S116'
p316
I0
I1
tp317
Rp318
(I3
S'|'
p319
NNNI116
I1
I0
tp320
bS'Mary saw Mary a telescope by my park walked my cat in my dog I shot an pajamas outside I I shot an pajamas outside I'
p321
tp322
Rp323
ag2
(g3
(S'S103'
p324
I0
I1
tp325
Rp326
(I3
S'|'
p327
NNNI103
I1
I0
tp328
bS'my telescope walked Mary Bob ate John my cat wounded my elephant outside I my elephant shot an elephant'
p329
tp330
Rp331
ag2
(g3
(S'S89'
p332
I0
I1
tp333
Rp334
(I3
S'|'
p335
NNNI89
I1
I0
tp336
bS'an man ate Bob Mary saw Bob my elephant killed I outside I my pajamas wounded I outside I'
p337
tp338
Rp339
ag2
(g3
(S'S139'
p340
I0
I1
tp341
Rp342
(I3
S'|'
p343
NNNI139
I1
I0
tp344
bS'John saw Mary a dog saw Bob in a man with Bob an cat wounded an dog in my cat outside an dog outside my dog I wounded my dog outside my dog'
p345
tp346
Rp347
ag2
(g3
(S'S122'
p348
I0
I1
tp349
Rp350
(I3
S'|'
p351
NNNI122
I1
I0
tp352
bS'Bob ate Bob a dog walked John on John my pajamas killed I outside my pajamas my dog killed an cat outside an dog outside I'
p353
tp354
Rp355
ag2
(g3
(S'S220'
p356
I0
I1
tp357
Rp358
(I3
S'|'
p359
NNNI220
I1
I0
tp360
bS'Bob ate an park in John in Mary my dog saw the dog with the telescope by an park on an dog an dog shot my pajamas outside my elephant in my cat in an cat my elephant wounded my cat outside my dog outside my cat in an cat'
p361
tp362
Rp363
ag2
(g3
(S'S94'
p364
I0
I1
tp365
Rp366
(I3
S'|'
p367
NNNI94
I1
I0
tp368
bS'John walked Bob Mary ate Bob I killed my elephant outside my cat I killed I outside an pajamas'
p369
tp370
Rp371
ag2
(g3
(S'S249'
p372
I0
I1
tp373
Rp374
(I3
S'|'
p375
NNNI249
I1
I0
tp376
bS'a park by Bob ate Mary in John my dog saw my park with the park by a park with Mary my cat wounded my dog in an pajamas in my pajamas in my dog outside I outside an pajamas in I an elephant wounded an elephant in an cat in my elephant outside my cat'
p377
tp378
Rp379
ag2
(g3
(S'S149'
p380
I0
I1
tp381
Rp382
(I3
S'|'
p383
NNNI149
I1
I0
tp384
bS'Mary saw my park by Bob Mary walked an park on an telescope an elephant wounded I in an pajamas in an cat my cat outside I shot I in my elephant in I'
p385
tp386
Rp387
ag2
(g3
(S'S168'
p388
I0
I1
tp389
Rp390
(I3
S'|'
p391
NNNI168
I1
I0
tp392
bS'Bob walked Mary an man with John saw a park with my cat on Bob an dog in I killed my cat in an dog outside my cat outside an cat outside I I killed I outside an pajamas'
p393
tp394
Rp395
ag2
(g3
(S'S146'
p396
I0
I1
tp397
Rp398
(I3
S'|'
p399
NNNI146
I1
I0
tp400
bS'John saw Mary by the man John walked Mary an dog killed I outside I in my dog my cat outside my cat shot my cat outside my elephant outside my cat'
p401
tp402
Rp403
ag2
(g3
(S'S187'
p404
I0
I1
tp405
Rp406
(I3
S'|'
p407
NNNI187
I1
I0
tp408
bS'John walked an dog in Bob an man with my man with Mary ate Bob on Bob my elephant shot my pajamas outside an dog in I in I in I outside an elephant in an pajamas an elephant killed an dog'
p409
tp410
Rp411
ag2
(g3
(S'S91'
p412
I0
I1
tp413
Rp414
(I3
S'|'
p415
NNNI91
I1
I0
tp416
bS'John walked Bob John ate Mary I killed I outside an pajamas outside I an elephant wounded I'
p417
tp418
Rp419
ag2
(g3
(S'S90'
p420
I0
I1
tp421
Rp422
(I3
S'|'
p423
NNNI90
I1
I0
tp424
bS'Bob walked Bob Mary saw Bob I killed my pajamas in an pajamas my dog outside I shot my cat'
p425
tp426
Rp427
ag2
(g3
(S'S155'
p428
I0
I1
tp429
Rp430
(I3
S'|'
p431
NNNI155
I1
I0
tp432
bS'Bob saw an park by my dog on Mary Bob walked an park with Mary I wounded I in my cat outside my dog outside an cat an elephant outside an cat killed an dog'
p433
tp434
Rp435
ag2
(g3
(S'S186'
p436
I0
I1
tp437
Rp438
(I3
S'|'
p439
NNNI186
I1
I0
tp440
bS'Bob ate Bob an man with John saw a park with my cat on Bob an dog in I killed my cat in an dog outside my cat outside an cat outside I my elephant wounded my dog in an dog in I in my dog'
p441
tp442
Rp443
ag2
(g3
(S'S208'
p444
I0
I1
tp445
Rp446
(I3
S'|'
p447
NNNI208
I1
I0
tp448
bS'Mary walked Bob by the telescope by Mary Mary walked an park on an telescope an elephant wounded I in an pajamas in an cat an pajamas wounded my elephant in my elephant outside my dog outside my dog outside I'
p449
tp450
Rp451
ag2
(g3
(S'S111'
p452
I0
I1
tp453
Rp454
(I3
S'|'
p455
NNNI111
I1
I0
tp456
bS'an man ate Mary the man walked an man an dog killed I in an pajamas outside my cat my cat outside I shot an cat'
p457
tp458
Rp459
ag2
(g3
(S'S207'
p460
I0
I1
tp461
Rp462
(I3
S'|'
p463
NNNI207
I1
I0
tp464
bS'Bob saw Bob on Bob an dog in the cat with John walked my man in my park on John I wounded my cat in an elephant outside my dog in my cat in my cat an cat outside an elephant outside an dog in I killed my cat'
p465
tp466
Rp467
ag2
(g3
(S'S199'
p468
I0
I1
tp469
Rp470
(I3
S'|'
p471
NNNI199
I1
I0
tp472
bS'the dog on a man walked Mary with Bob a telescope on Mary saw an man my pajamas wounded I in my dog in my elephant outside I an cat outside my pajamas outside I wounded my dog outside my pajamas in I'
p473
tp474
Rp475
ag2
(g3
(S'S144'
p476
I0
I1
tp477
Rp478
(I3
S'|'
p479
NNNI144
I1
I0
tp480
bS'John ate an telescope a telescope on Mary saw an man my pajamas wounded I in my dog in my elephant outside I my cat wounded an pajamas outside I'
p481
tp482
Rp483
ag2
(g3
(S'S102'
p484
I0
I1
tp485
Rp486
(I3
S'|'
p487
NNNI102
I1
I0
tp488
bS'an dog with Mary saw my telescope John walked an dog an cat shot my dog I killed my elephant in my cat'
p489
tp490
Rp491
ag2
(g3
(S'S218'
p492
I0
I1
tp493
Rp494
(I3
S'|'
p495
NNNI218
I1
I0
tp496
bS'my man in Bob ate my dog on Bob an man with my man with Mary ate Bob on Bob my elephant shot my pajamas outside an dog in I in I in I outside an elephant in an pajamas an cat killed my dog in an dog outside I in my dog'
p497
tp498
Rp499
ag2
(g3
(S'S144'
p500
I0
I1
tp501
Rp502
(I3
S'|'
p503
NNNI144
I1
I0
tp504
bS'Mary ate Mary Mary walked the telescope with Bob I killed my elephant outside my pajamas outside an pajamas an pajamas shot I outside my pajamas'
p505
tp506
Rp507
ag2
(g3
(S'S130'
p508
I0
I1
tp509
Rp510
(I3
S'|'
p511
NNNI130
I1
I0
tp512
bS'Mary saw Bob a dog saw Bob in a man with Bob an cat wounded an dog in my cat outside an dog outside my dog I shot my dog in my cat'
p513
tp514
Rp515
ag2
(g3
(S'S261'
p516
I0
I1
tp517
Rp518
(I3
S'|'
p519
NNNI261
I1
I0
tp520
bS'a man with the man walked the telescope John walked John with my telescope with John my cat in I killed an cat in my cat outside my cat outside an cat outside an elephant an cat wounded an dog outside an pajamas in I outside my elephant outside my dog in I in I'
p521
tp522
Rp523
ag2
(g3
(S'S121'
p524
I0
I1
tp525
Rp526
(I3
S'|'
p527
NNNI121
I1
I0
tp528
bS'Bob saw a telescope in John Mary ate Mary an pajamas in my elephant killed I my elephant killed an pajamas outside an cat'
p529
tp530
Rp531
ag2
(g3
(S'S136'
p532
I0
I1
tp533
Rp534
(I3
S'|'
p535
NNNI136
I1
I0
tp536
bS'Mary ate John my park with an dog saw Mary with an park my elephant shot an elephant in my pajamas outside I my pajamas shot my dog in I'
p537
tp538
Rp539
ag2
(g3
(S'S119'
p540
I0
I1
tp541
Rp542
(I3
S'|'
p543
NNNI119
I1
I0
tp544
bS'Mary saw John Bob saw Mary by Bob I wounded I in an dog outside my elephant in an elephant my pajamas killed my pajamas'
p545
tp546
Rp547
ag2
(g3
(S'S206'
p548
I0
I1
tp549
Rp550
(I3
S'|'
p551
NNNI206
I1
I0
tp552
bS'an telescope in Mary ate Mary an man with John saw a park with my cat on Bob an dog in I killed my cat in an dog outside my cat outside an cat outside I I shot I in I outside I outside an elephant outside I'
p553
tp554
Rp555
ag2
(g3
(S'S115'
p556
I0
I1
tp557
Rp558
(I3
S'|'
p559
NNNI115
I1
I0
tp560
bS'John saw Bob John ate Bob in Bob my pajamas in an dog wounded my elephant in I my dog wounded an cat outside my cat'
p561
tp562
Rp563
ag2
(g3
(S'S112'
p564
I0
I1
tp565
Rp566
(I3
S'|'
p567
NNNI112
I1
I0
tp568
bS'John saw John John saw the man my pajamas shot my elephant in an elephant my dog in my elephant shot my elephant'
p569
tp570
Rp571
ag2
(g3
(S'S128'
p572
I0
I1
tp573
Rp574
(I3
S'|'
p575
NNNI128
I1
I0
tp576
bS'John ate Bob with Mary John ate a dog in Bob an pajamas outside my cat killed I an elephant shot an dog outside an cat outside I'
p577
tp578
Rp579
ag2
(g3
(S'S181'
p580
I0
I1
tp581
Rp582
(I3
S'|'
p583
NNNI181
I1
I0
tp584
bS'Bob walked Bob by Mary an dog with my park on a man walked Bob an pajamas shot an dog in my cat outside an pajamas in my dog my dog wounded an elephant outside an dog outside an dog'
p585
tp586
Rp587
ag2
(g3
(S'S127'
p588
I0
I1
tp589
Rp590
(I3
S'|'
p591
NNNI127
I1
I0
tp592
bS'John walked a telescope on Mary John walked an dog an cat shot my dog my pajamas shot my cat outside I in an dog in my elephant'
p593
tp594
Rp595
ag2
(g3
(S'S192'
p596
I0
I1
tp597
Rp598
(I3
S'|'
p599
NNNI192
I1
I0
tp600
bS'Bob walked the park on Bob with a dog the dog saw my park in Bob an elephant shot I in I outside my dog an dog outside an dog in my cat shot my cat in my elephant outside my dog outside an dog'
p601
tp602
Rp603
ag2
(g3
(S'S203'
p604
I0
I1
tp605
Rp606
(I3
S'|'
p607
NNNI203
I1
I0
tp608
bS'John saw Bob by Bob an dog in the cat with John walked my man in my park on John I wounded my cat in an elephant outside my dog in my cat in my cat an cat killed my cat outside I in my elephant outside I'
p609
tp610
Rp611
ag2
(g3
(S'S85'
p612
I0
I1
tp613
Rp614
(I3
S'|'
p615
NNNI85
I1
I0
tp616
bS'John ate an man Mary ate a dog my cat in I wounded my dog my elephant shot my pajamas'
p617
tp618
Rp619
ag2
(g3
(S'S188'
p620
I0
I1
tp621
Rp622
(I3
S'|'
p623
NNNI188
I1
I0
tp624
bS'an man on John walked Mary in John my park with an dog saw Mary with an park my elephant shot an elephant in my pajamas outside I I shot my dog outside an dog in my elephant outside an cat'
p625
tp626
Rp627
ag2
(g3
(S'S178'
p628
I0
I1
tp629
Rp630
(I3
S'|'
p631
NNNI178
I1
I0
tp632
bS'John walked my cat on the telescope with Bob by Bob John walked an dog an cat shot my dog my dog in I shot an elephant in an dog in my elephant outside my elephant in I outside I'
p633
tp634
Rp635
ag2
(g3
(S'S191'
p636
I0
I1
tp637
Rp638
(I3
S'|'
p639
NNNI191
I1
I0
tp640
bS'the park ate my dog an man with John saw a park with my cat on Bob an dog in I killed my cat in an dog outside my cat outside an cat outside I my dog shot an elephant in I outside my elephant'
p641
tp642
Rp643
ag2
(g3
(S'S143'
p644
I0
I1
tp645
Rp646
(I3
S'|'
p647
NNNI143
I1
I0
tp648
bS'my telescope saw John on the cat Bob ate John in Mary my elephant wounded I outside an elephant my cat outside my elephant in I shot an pajamas'
p649
tp650
Rp651
ag2
(g3
(S'S185'
p652
I0
I1
tp653
Rp654
(I3
S'|'
p655
NNNI185
I1
I0
tp656
bS'a man ate Mary with John John walked a park with John my pajamas in I wounded I outside an dog in I outside my dog I wounded my pajamas in my dog outside I in an cat in an cat in my dog'
p657
tp658
Rp659
ag2
(g3
(S'S154'
p660
I0
I1
tp661
Rp662
(I3
S'|'
p663
NNNI154
I1
I0
tp664
bS'a dog with John saw the man in Bob in Mary a cat saw Bob an elephant wounded I I wounded an elephant in I outside an pajamas in my cat in I outside an dog'
p665
tp666
Rp667
ag2
(g3
(S'S102'
p668
I0
I1
tp669
Rp670
(I3
S'|'
p671
NNNI102
I1
I0
tp672
bS'Mary ate the park Mary saw Bob my elephant killed I outside I I wounded an pajamas outside my elephant'
p673
tp674
Rp675
ag2
(g3
(S'S124'
p676
I0
I1
tp677
Rp678
(I3
S'|'
p679
NNNI124
I1
I0
tp680
bS'Mary saw John on John Mary ate John my pajamas wounded I in an elephant my pajamas shot my elephant outside an elephant in I'
p681
tp682
Rp683
ag2
(g3
(S'S168'
p684
I0
I1
tp685
Rp686
(I3
S'|'
p687
NNNI168
I1
I0
tp688
bS'Bob walked Bob an man with John saw a park with my cat on Bob an dog in I killed my cat in an dog outside my cat outside an cat outside I an dog in I killed I in my cat'
p689
tp690
Rp691
ag2
(g3
(S'S138'
p692
I0
I1
tp693
Rp694
(I3
S'|'
p695
NNNI138
I1
I0
tp696
bS'an man ate Mary an dog with my park on a man walked Bob an pajamas shot an dog in my cat outside an pajamas in my dog my elephant killed I'
p697
tp698
Rp699
ag2
(g3
(S'S110'
p700
I0
I1
tp701
Rp702
(I3
S'|'
p703
NNNI110
I1
I0
tp704
bS'Mary walked Mary a man in Bob walked an park an cat outside an pajamas wounded an cat I killed an pajamas in I'
p705
tp706
Rp707
ag2
(g3
(S'S213'
p708
I0
I1
tp709
Rp710
(I3
S'|'
p711
NNNI213
I1
I0
tp712
bS'my park by a park with John walked an park in Mary my park with an dog saw Mary with an park my elephant shot an elephant in my pajamas outside I an cat outside my pajamas in my elephant outside an dog shot an cat'
p713
tp714
Rp715
ag2
(g3
(S'S142'
p716
I0
I1
tp717
Rp718
(I3
S'|'
p719
NNNI142
I1
I0
tp720
bS'Mary saw Bob on my dog by John Bob saw my man an dog shot I in an cat in an cat in I my cat outside I shot I in I outside my pajamas outside I'
p721
tp722
Rp723
ag2
(g3
(S'S113'
p724
I0
I1
tp725
Rp726
(I3
S'|'
p727
NNNI113
I1
I0
tp728
bS'John saw Bob in Mary my park walked John my dog outside I killed my dog my cat wounded an cat in my dog outside I'
p729
tp730
Rp731
ag2
(g3
(S'S86'
p732
I0
I1
tp733
Rp734
(I3
S'|'
p735
NNNI86
I1
I0
tp736
bS'Bob saw a dog my park walked John my dog outside I killed my dog I wounded my elephant'
p737
tp738
Rp739
ag2
(g3
(S'S177'
p740
I0
I1
tp741
Rp742
(I3
S'|'
p743
NNNI177
I1
I0
tp744
bS'Mary ate my telescope John walked John with my telescope with John my cat in I killed an cat in my cat outside my cat outside an cat outside an elephant an cat killed my pajamas'
p745
tp746
Rp747
ag2
(g3
(S'S203'
p748
I0
I1
tp749
Rp750
(I3
S'|'
p751
NNNI203
I1
I0
tp752
bS'a dog with John walked the dog in an dog an dog in the cat with John walked my man in my park on John I wounded my cat in an elephant outside my dog in my cat in my cat my elephant killed my pajamas in I'
p753
tp754
Rp755
ag2
(g3
(S'S158'
p756
I0
I1
tp757
Rp758
(I3
S'|'
p759
NNNI158
I1
I0
tp760
bS'Mary walked my cat by Bob in Bob John walked a park with John my pajamas in I wounded I outside an dog in I outside my dog my cat outside an cat killed an cat'
p761
tp762
Rp763
ag2
(g3
(S'S188'
p764
I0
I1
tp765
Rp766
(I3
S'|'
p767
NNNI188
I1
I0
tp768
bS'a telescope with Bob walked a cat in an dog by Bob an cat saw an telescope in Mary with Bob my elephant in an pajamas wounded an dog an dog killed an dog outside I in an elephant outside I'
p769
tp770
Rp771
ag2
(g3
(S'S159'
p772
I0
I1
tp773
Rp774
(I3
S'|'
p775
NNNI159
I1
I0
tp776
bS'my man by John ate a park in an man John ate Bob in Bob my pajamas in an dog wounded my elephant in I my dog shot I in an pajamas outside my cat outside I in I'
p777
tp778
Rp779
ag2
(g3
(S'S203'
p780
I0
I1
tp781
Rp782
(I3
S'|'
p783
NNNI203
I1
I0
tp784
bS'Mary walked an cat by my telescope with an cat an dog in the cat with John walked my man in my park on John I wounded my cat in an elephant outside my dog in my cat in my cat an dog shot I in an elephant'
p785
tp786
Rp787
ag2
(g3
(S'S224'
p788
I0
I1
tp789
Rp790
(I3
S'|'
p791
NNNI224
I1
I0
tp792
bS'John walked John with Mary an man with my man with Mary ate Bob on Bob my elephant shot my pajamas outside an dog in I in I in I outside an elephant in an pajamas my cat outside my elephant in I wounded an cat in my elephant'
p793
tp794
Rp795
ag2
(g3
(S'S174'
p796
I0
I1
tp797
Rp798
(I3
S'|'
p799
NNNI174
I1
I0
tp800
bS'Bob ate an park with an telescope a dog saw Bob in a man with Bob an cat wounded an dog in my cat outside an dog outside my dog my elephant wounded my elephant outside an dog'
p801
tp802
Rp803
ag2
(g3
(S'S146'
p804
I0
I1
tp805
Rp806
(I3
S'|'
p807
NNNI146
I1
I0
tp808
bS'my park walked my dog with the telescope Mary walked an man I wounded an pajamas in my dog I wounded an pajamas in I in an elephant in my dog in I'
p809
tp810
Rp811
ag2
(g3
(S'S147'
p812
I0
I1
tp813
Rp814
(I3
S'|'
p815
NNNI147
I1
I0
tp816
bS'Mary walked Mary with my cat an cat saw an telescope in Mary with Bob my elephant in an pajamas wounded an dog I wounded an dog in an cat in my dog'
p817
tp818
Rp819
ag2
(g3
(S'S144'
p820
I0
I1
tp821
Rp822
(I3
S'|'
p823
NNNI144
I1
I0
tp824
bS'a dog saw Bob on the dog Mary saw the dog on Bob an dog killed an dog in an dog outside an cat outside my dog my cat killed my pajamas in an dog'
p825
tp826
Rp827
ag2
(g3
(S'S144'
p828
I0
I1
tp829
Rp830
(I3
S'|'
p831
NNNI144
I1
I0
tp832
bS'Bob walked an park by John John saw my cat by my park my elephant wounded an cat outside I my dog shot my dog in an dog in my elephant outside I'
p833
tp834
Rp835
ag2
(g3
(S'S223'
p836
I0
I1
tp837
Rp838
(I3
S'|'
p839
NNNI223
I1
I0
tp840
bS'Mary walked a man in Mary with Mary my dog saw my park with the park by a park with Mary my cat wounded my dog in an pajamas in my pajamas in my dog outside I outside an pajamas in I my elephant killed my elephant outside I'
p841
tp842
Rp843
ag2
(g3
(S'S93'
p844
I0
I1
tp845
Rp846
(I3
S'|'
p847
NNNI93
I1
I0
tp848
bS'Mary walked Bob Mary ate John my pajamas wounded I in an elephant I shot an pajamas outside I'
p849
tp850
Rp851
ag2
(g3
(S'S167'
p852
I0
I1
tp853
Rp854
(I3
S'|'
p855
NNNI167
I1
I0
tp856
bS'John walked the man in Bob in Mary Bob walked an park with Mary I wounded I in my cat outside my dog outside an cat my pajamas outside an pajamas shot an dog in my cat'
p857
tp858
Rp859
ag2
(g3
(S'S185'
p860
I0
I1
tp861
Rp862
(I3
S'|'
p863
NNNI185
I1
I0
tp864
bS'Bob walked the telescope in John on Bob the dog saw my park in Bob an elephant shot I in I outside my dog I killed an dog outside I outside my pajamas in I outside I in my cat in I in I'
p865
tp866
Rp867
ag2
(g3
(S'S203'
p868
I0
I1
tp869
Rp870
(I3
S'|'
p871
NNNI203
I1
I0
tp872
bS'Bob saw Mary by Bob an man with John saw a park with my cat on Bob an dog in I killed my cat in an dog outside my cat outside an cat outside I an cat killed my elephant outside my elephant outside I in I'
p873
tp874
Rp875
ag2
(g3
(S'S143'
p876
I0
I1
tp877
Rp878
(I3
S'|'
p879
NNNI143
I1
I0
tp880
bS'Mary saw an park with Mary the man walked an man an dog killed I in an pajamas outside my cat my pajamas in my elephant in my elephant killed I'
p881
tp882
Rp883
ag2
(g3
(S'S96'
p884
I0
I1
tp885
Rp886
(I3
S'|'
p887
NNNI96
I1
I0
tp888
bS'Mary ate Bob Bob saw John my pajamas outside I killed I in I an dog wounded my pajamas outside I'
p889
tp890
Rp891
ag2
(g3
(S'S135'
p892
I0
I1
tp893
Rp894
(I3
S'|'
p895
NNNI135
I1
I0
tp896
bS'Bob ate an cat with John John walked a man in Bob I killed I outside I outside my dog outside I an pajamas in my pajamas wounded my dog'
p897
tp898
Rp899
ag2
(g3
(S'S115'
p900
I0
I1
tp901
Rp902
(I3
S'|'
p903
NNNI115
I1
I0
tp904
bS'John walked Bob the dog saw my park in Bob an elephant shot I in I outside my dog an dog shot I outside an cat in I'
p905
tp906
Rp907
ag2
(g3
(S'S123'
p908
I0
I1
tp909
Rp910
(I3
S'|'
p911
NNNI123
I1
I0
tp912
bS'a cat in an telescope ate Bob the man walked John I wounded my pajamas outside I in an pajamas an dog shot my cat outside I'
p913
tp914
Rp915
ag2
(g3
(S'S114'
p916
I0
I1
tp917
Rp918
(I3
S'|'
p919
NNNI114
I1
I0
tp920
bS'John saw John a dog walked John on John my pajamas killed I outside my pajamas an cat outside I killed I in my cat'
p921
tp922
Rp923
ag2
(g3
(S'S116'
p924
I0
I1
tp925
Rp926
(I3
S'|'
p927
NNNI116
I1
I0
tp928
bS'John saw John in Mary my park walked John my dog outside I killed my dog an cat outside I shot I in an elephant in I'
p929
tp930
Rp931
ag2
(g3
(S'S141'
p932
I0
I1
tp933
Rp934
(I3
S'|'
p935
NNNI141
I1
I0
tp936
bS'my telescope with a dog saw a telescope Bob saw my man an dog shot I in an cat in an cat in I an dog shot I outside I in an pajamas in an dog'
p937
tp938
Rp939
ag2
(g3
(S'S155'
p940
I0
I1
tp941
Rp942
(I3
S'|'
p943
NNNI155
I1
I0
tp944
bS'a telescope ate John John walked Mary on a telescope an cat wounded I in an dog outside I in I outside an dog in my dog an pajamas in an elephant wounded I'
p945
tp946
Rp947
ag2
(g3
(S'S99'
p948
I0
I1
tp949
Rp950
(I3
S'|'
p951
NNNI99
I1
I0
tp952
bS'Bob saw an telescope my park walked John my dog outside I killed my dog my pajamas shot an elephant'
p953
tp954
Rp955
ag2
(g3
(S'S191'
p956
I0
I1
tp957
Rp958
(I3
S'|'
p959
NNNI191
I1
I0
tp960
bS'a dog in a telescope with Mary walked Bob Mary saw the dog on an dog on an dog in Bob an pajamas outside my cat wounded an cat in an cat my elephant outside I killed an pajamas outside an dog'
p961
tp962
Rp963
ag2
(g3
(S'S202'
p964
I0
I1
tp965
Rp966
(I3
S'|'
p967
NNNI202
I1
I0
tp968
bS'an man by John saw Mary my dog saw the dog with the telescope by an park on an dog an dog shot my pajamas outside my elephant in my cat in an cat my pajamas outside my dog shot my dog outside an pajamas'
p969
tp970
Rp971
ag2
(g3
(S'S106'
p972
I0
I1
tp973
Rp974
(I3
S'|'
p975
NNNI106
I1
I0
tp976
bS'John ate John John ate Mary I killed I outside an pajamas outside I my pajamas killed my pajamas outside I'
p977
tp978
Rp979
ag2
(g3
(S'S132'
p980
I0
I1
tp981
Rp982
(I3
S'|'
p983
NNNI132
I1
I0
tp984
bS'my park saw John on a cat Mary walked an cat by Mary my cat shot an dog in my cat in an pajamas an cat wounded an cat in an elephant'
p985
tp986
Rp987
ag2
(g3
(S'S146'
p988
I0
I1
tp989
Rp990
(I3
S'|'
p991
NNNI146
I1
I0
tp992
bS'John saw Mary an dog with my park on a man walked Bob an pajamas shot an dog in my cat outside an pajamas in my dog I killed an elephant outside I'
p993
tp994
Rp995
ag2
(g3
(S'S138'
p996
I0
I1
tp997
Rp998
(I3
S'|'
p999
NNNI138
I1
I0
tp1000
bS'my park saw John in the park John ate Bob in Bob my pajamas in an dog wounded my elephant in I my cat in my cat shot I in an dog in an dog'
p1001
tp1002
Rp1003
ag2
(g3
(S'S169'
p1004
I0
I1
tp1005
Rp1006
(I3
S'|'
p1007
NNNI169
I1
I0
tp1008
bS'Mary walked John in Bob John walked Mary on a telescope an cat wounded I in an dog outside I in I outside an dog in my dog an cat outside an dog wounded my cat outside I'
p1009
tp1010
Rp1011
ag2
(g3
(S'S119'
p1012
I0
I1
tp1013
Rp1014
(I3
S'|'
p1015
NNNI119
I1
I0
tp1016
bS'the telescope ate Mary Bob ate John my cat wounded my elephant outside I my cat wounded I in an elephant in an elephant'
p1017
tp1018
Rp1019
ag2
(g3
(S'S127'
p1020
I0
I1
tp1021
Rp1022
(I3
S'|'
p1023
NNNI127
I1
I0
tp1024
bS'a dog ate Bob on Bob Bob ate John in Mary my elephant wounded I outside an elephant an elephant shot an elephant outside my dog'
p1025
tp1026
Rp1027
ag2
(g3
(S'S219'
p1028
I0
I1
tp1029
Rp1030
(I3
S'|'
p1031
NNNI219
I1
I0
tp1032
bS'an park walked Mary on John my dog saw the dog with the telescope by an park on an dog an dog shot my pajamas outside my elephant in my cat in an cat an pajamas outside an pajamas outside I wounded my cat outside an dog'
p1033
tp1034
Rp1035
ag2
(g3
(S'S135'
p1036
I0
I1
tp1037
Rp1038
(I3
S'|'
p1039
NNNI135
I1
I0
tp1040
bS'Mary ate the man on Bob Mary saw Bob I killed my pajamas in an pajamas my elephant wounded my elephant in my pajamas outside my pajamas'
p1041
tp1042
Rp1043
ag2
(g3
(S'S184'
p1044
I0
I1
tp1045
Rp1046
(I3
S'|'
p1047
NNNI184
I1
I0
tp1048
bS'Bob ate John an man with John saw a park with my cat on Bob an dog in I killed my cat in an dog outside my cat outside an cat outside I an cat in my dog outside I shot I in my cat in I'
p1049
tp1050
Rp1051
ag2
(g3
(S'S168'
p1052
I0
I1
tp1053
Rp1054
(I3
S'|'
p1055
NNNI168
I1
I0
tp1056
bS'an cat saw Bob my dog saw the dog with the telescope by an park on an dog an dog shot my pajamas outside my elephant in my cat in an cat I wounded an elephant outside I'
p1057
tp1058
Rp1059
ag2
(g3
(S'S99'
p1060
I0
I1
tp1061
Rp1062
(I3
S'|'
p1063
NNNI99
I1
I0
tp1064
bS'an park walked a cat in Mary Bob saw my man an dog shot I in an cat in an cat in I I wounded an dog'
p1065
tp1066
Rp1067
ag2
(g3
(S'S233'
p1068
I0
I1
tp1069
Rp1070
(I3
S'|'
p1071
NNNI233
I1
I0
tp1072
bS'my park saw Bob by my man in Mary my dog saw my park with the park by a park with Mary my cat wounded my dog in an pajamas in my pajamas in my dog outside I outside an pajamas in I I shot an elephant in my dog in I outside an pajamas'
p1073
tp1074
Rp1075
ag2
(g3
(S'S227'
p1076
I0
I1
tp1077
Rp1078
(I3
S'|'
p1079
NNNI227
I1
I0
tp1080
bS'a cat walked my telescope in the telescope my dog saw my park with the park by a park with Mary my cat wounded my dog in an pajamas in my pajamas in my dog outside I outside an pajamas in I I shot an dog in I outside my pajamas'
p1081
tp1082
Rp1083
ag2
(g3
(S'S105'
p1084
I0
I1
tp1085
Rp1086
(I3
S'|'
p1087
NNNI105
I1
I0
tp1088
bS'John saw an park Mary walked an cat by Mary my cat shot an dog in my cat in an pajamas I shot an cat in I'
p1089
tp1090
Rp1091
atp1092
Rp1093
.